target datalayout = "e-m:e-p270:32:32-p271:32:32-p272:64:64-i64:64-i128:128-f80:128-n8:16:32:64-S128"
target triple = "x86_64-pc-linux-gnu"

%"struct.std::pair" = type { i8, i8 }
%class.anon.3 = type { i8 }
%"struct.__gnu_cxx::__ops::_Iter_pred.19" = type { %class.anon.3 }

@_ZZN7rocksdb10EscapeCharEcE11convert_map = internal constant [2 x %"struct.std::pair"] [%"struct.std::pair" { i8 10, i8 110 }, %"struct.std::pair" { i8 13, i8 114 }], align 1

; Function Attrs: inlinehint mustprogress nounwind uwtable
define internal noundef zeroext i1 @"_ZZN7rocksdb10EscapeCharEcENK3$_0clERKSt4pairIccE"(ptr noundef nonnull align 1 dereferenceable(1) %0, ptr noundef nonnull align 1 dereferenceable(2) %1) #5 align 2 {
  %3 = alloca ptr, align 8
  %4 = alloca ptr, align 8
  store ptr %0, ptr %3, align 8, !tbaa !83
  store ptr %1, ptr %4, align 8, !tbaa !56
  %5 = load ptr, ptr %3, align 8
  %6 = load ptr, ptr %4, align 8, !tbaa !56
  %7 = getelementptr inbounds nuw %"struct.std::pair", ptr %6, i32 0, i32 0
  %8 = load i8, ptr %7, align 1, !tbaa !196
  %9 = sext i8 %8 to i32
  %10 = getelementptr inbounds nuw %class.anon.3, ptr %5, i32 0, i32 0
  %11 = load i8, ptr %10, align 1, !tbaa !61
  %12 = sext i8 %11 to i32
  %13 = icmp eq i32 %9, %12
  ret i1 %13
}

; Function Attrs: mustprogress uwtable
define internal noundef zeroext i1 @"_ZN9__gnu_cxx5__ops10_Iter_predIZN7rocksdb10EscapeCharEcE3$_0EclIPKSt4pairIccEEEbT_"(ptr noundef nonnull align 1 dereferenceable(1) %0, ptr noundef %1) #3 align 2 {
  %3 = alloca ptr, align 8
  %4 = alloca ptr, align 8
  store ptr %0, ptr %3, align 8, !tbaa !198
  store ptr %1, ptr %4, align 8, !tbaa !56
  %5 = load ptr, ptr %3, align 8
  %6 = getelementptr inbounds nuw %"struct.__gnu_cxx::__ops::_Iter_pred.19", ptr %5, i32 0, i32 0
  %7 = load ptr, ptr %4, align 8, !tbaa !56
  %8 = call noundef zeroext i1 @"_ZZN7rocksdb10EscapeCharEcENK3$_0clERKSt4pairIccE"(ptr noundef nonnull align 1 dereferenceable(1) %6, ptr noundef nonnull align 1 dereferenceable(2) %7)
  ret i1 %8
}

; Function Attrs: mustprogress uwtable
define internal noundef ptr @"_ZSt9__find_ifIPKSt4pairIccEN9__gnu_cxx5__ops10_Iter_predIZN7rocksdb10EscapeCharEcE3$_0EEET_SA_SA_T0_St26random_access_iterator_tag"(ptr noundef %0, ptr noundef %1, i8 %2) #3 {
  %4 = alloca ptr, align 8
  %5 = alloca %"struct.__gnu_cxx::__ops::_Iter_pred.19", align 1
  %6 = alloca ptr, align 8
  %7 = alloca ptr, align 8
  %8 = alloca i64, align 8
  %9 = alloca i32, align 4
  %10 = getelementptr inbounds nuw %"struct.__gnu_cxx::__ops::_Iter_pred.19", ptr %5, i32 0, i32 0
  %11 = getelementptr inbounds nuw %class.anon.3, ptr %10, i32 0, i32 0
  store i8 %2, ptr %11, align 1
  store ptr %0, ptr %6, align 8, !tbaa !56
  store ptr %1, ptr %7, align 8, !tbaa !56
  call void @llvm.lifetime.start.p0(i64 8, ptr %8) #4
  %12 = load ptr, ptr %7, align 8, !tbaa !56
  %13 = load ptr, ptr %6, align 8, !tbaa !56
  %14 = ptrtoint ptr %12 to i64
  %15 = ptrtoint ptr %13 to i64
  %16 = sub i64 %14, %15
  %17 = sdiv exact i64 %16, 2
  %18 = ashr i64 %17, 2
  store i64 %18, ptr %8, align 8, !tbaa !32
  br label %19

19:                                               ; preds = %51, %3
  %20 = load i64, ptr %8, align 8, !tbaa !32
  %21 = icmp sgt i64 %20, 0
  br i1 %21, label %22, label %54

22:                                               ; preds = %19
  %23 = load ptr, ptr %6, align 8, !tbaa !56
  %24 = call noundef zeroext i1 @"_ZN9__gnu_cxx5__ops10_Iter_predIZN7rocksdb10EscapeCharEcE3$_0EclIPKSt4pairIccEEEbT_"(ptr noundef nonnull align 1 dereferenceable(1) %5, ptr noundef %23)
  br i1 %24, label %25, label %27

25:                                               ; preds = %22
  %26 = load ptr, ptr %6, align 8, !tbaa !56
  store ptr %26, ptr %4, align 8
  store i32 1, ptr %9, align 4
  br label %88

27:                                               ; preds = %22
  %28 = load ptr, ptr %6, align 8, !tbaa !56
  %29 = getelementptr inbounds nuw %"struct.std::pair", ptr %28, i32 1
  store ptr %29, ptr %6, align 8, !tbaa !56
  %30 = load ptr, ptr %6, align 8, !tbaa !56
  %31 = call noundef zeroext i1 @"_ZN9__gnu_cxx5__ops10_Iter_predIZN7rocksdb10EscapeCharEcE3$_0EclIPKSt4pairIccEEEbT_"(ptr noundef nonnull align 1 dereferenceable(1) %5, ptr noundef %30)
  br i1 %31, label %32, label %34

32:                                               ; preds = %27
  %33 = load ptr, ptr %6, align 8, !tbaa !56
  store ptr %33, ptr %4, align 8
  store i32 1, ptr %9, align 4
  br label %88

34:                                               ; preds = %27
  %35 = load ptr, ptr %6, align 8, !tbaa !56
  %36 = getelementptr inbounds nuw %"struct.std::pair", ptr %35, i32 1
  store ptr %36, ptr %6, align 8, !tbaa !56
  %37 = load ptr, ptr %6, align 8, !tbaa !56
  %38 = call noundef zeroext i1 @"_ZN9__gnu_cxx5__ops10_Iter_predIZN7rocksdb10EscapeCharEcE3$_0EclIPKSt4pairIccEEEbT_"(ptr noundef nonnull align 1 dereferenceable(1) %5, ptr noundef %37)
  br i1 %38, label %39, label %41

39:                                               ; preds = %34
  %40 = load ptr, ptr %6, align 8, !tbaa !56
  store ptr %40, ptr %4, align 8
  store i32 1, ptr %9, align 4
  br label %88

41:                                               ; preds = %34
  %42 = load ptr, ptr %6, align 8, !tbaa !56
  %43 = getelementptr inbounds nuw %"struct.std::pair", ptr %42, i32 1
  store ptr %43, ptr %6, align 8, !tbaa !56
  %44 = load ptr, ptr %6, align 8, !tbaa !56
  %45 = call noundef zeroext i1 @"_ZN9__gnu_cxx5__ops10_Iter_predIZN7rocksdb10EscapeCharEcE3$_0EclIPKSt4pairIccEEEbT_"(ptr noundef nonnull align 1 dereferenceable(1) %5, ptr noundef %44)
  br i1 %45, label %46, label %48

46:                                               ; preds = %41
  %47 = load ptr, ptr %6, align 8, !tbaa !56
  store ptr %47, ptr %4, align 8
  store i32 1, ptr %9, align 4
  br label %88

48:                                               ; preds = %41
  %49 = load ptr, ptr %6, align 8, !tbaa !56
  %50 = getelementptr inbounds nuw %"struct.std::pair", ptr %49, i32 1
  store ptr %50, ptr %6, align 8, !tbaa !56
  br label %51

51:                                               ; preds = %48
  %52 = load i64, ptr %8, align 8, !tbaa !32
  %53 = add nsw i64 %52, -1
  store i64 %53, ptr %8, align 8, !tbaa !32
  br label %19, !llvm.loop !197

54:                                               ; preds = %19
  %55 = load ptr, ptr %7, align 8, !tbaa !56
  %56 = load ptr, ptr %6, align 8, !tbaa !56
  %57 = ptrtoint ptr %55 to i64
  %58 = ptrtoint ptr %56 to i64
  %59 = sub i64 %57, %58
  %60 = sdiv exact i64 %59, 2
  switch i64 %60, label %86 [
    i64 3, label %61
    i64 2, label %69
    i64 1, label %77
    i64 0, label %85
  ]

61:                                               ; preds = %54
  %62 = load ptr, ptr %6, align 8, !tbaa !56
  %63 = call noundef zeroext i1 @"_ZN9__gnu_cxx5__ops10_Iter_predIZN7rocksdb10EscapeCharEcE3$_0EclIPKSt4pairIccEEEbT_"(ptr noundef nonnull align 1 dereferenceable(1) %5, ptr noundef %62)
  br i1 %63, label %64, label %66

64:                                               ; preds = %61
  %65 = load ptr, ptr %6, align 8, !tbaa !56
  store ptr %65, ptr %4, align 8
  store i32 1, ptr %9, align 4
  br label %88

66:                                               ; preds = %61
  %67 = load ptr, ptr %6, align 8, !tbaa !56
  %68 = getelementptr inbounds nuw %"struct.std::pair", ptr %67, i32 1
  store ptr %68, ptr %6, align 8, !tbaa !56
  br label %69

69:                                               ; preds = %54, %66
  %70 = load ptr, ptr %6, align 8, !tbaa !56
  %71 = call noundef zeroext i1 @"_ZN9__gnu_cxx5__ops10_Iter_predIZN7rocksdb10EscapeCharEcE3$_0EclIPKSt4pairIccEEEbT_"(ptr noundef nonnull align 1 dereferenceable(1) %5, ptr noundef %70)
  br i1 %71, label %72, label %74

72:                                               ; preds = %69
  %73 = load ptr, ptr %6, align 8, !tbaa !56
  store ptr %73, ptr %4, align 8
  store i32 1, ptr %9, align 4
  br label %88

74:                                               ; preds = %69
  %75 = load ptr, ptr %6, align 8, !tbaa !56
  %76 = getelementptr inbounds nuw %"struct.std::pair", ptr %75, i32 1
  store ptr %76, ptr %6, align 8, !tbaa !56
  br label %77

77:                                               ; preds = %54, %74
  %78 = load ptr, ptr %6, align 8, !tbaa !56
  %79 = call noundef zeroext i1 @"_ZN9__gnu_cxx5__ops10_Iter_predIZN7rocksdb10EscapeCharEcE3$_0EclIPKSt4pairIccEEEbT_"(ptr noundef nonnull align 1 dereferenceable(1) %5, ptr noundef %78)
  br i1 %79, label %80, label %82

80:                                               ; preds = %77
  %81 = load ptr, ptr %6, align 8, !tbaa !56
  store ptr %81, ptr %4, align 8
  store i32 1, ptr %9, align 4
  br label %88

82:                                               ; preds = %77
  %83 = load ptr, ptr %6, align 8, !tbaa !56
  %84 = getelementptr inbounds nuw %"struct.std::pair", ptr %83, i32 1
  store ptr %84, ptr %6, align 8, !tbaa !56
  br label %85

85:                                               ; preds = %54, %82
  br label %86

86:                                               ; preds = %54, %85
  %87 = load ptr, ptr %7, align 8, !tbaa !56
  store ptr %87, ptr %4, align 8
  store i32 1, ptr %9, align 4
  br label %88

88:                                               ; preds = %86, %80, %72, %64, %46, %39, %32, %25
  call void @llvm.lifetime.end.p0(i64 8, ptr %8) #4
  %89 = load ptr, ptr %4, align 8
  ret ptr %89
}

; Function Attrs: inlinehint mustprogress nounwind uwtable
define linkonce_odr void @_ZSt19__iterator_categoryIPKSt4pairIccEENSt15iterator_traitsIT_E17iterator_categoryERKS5_(ptr noundef nonnull align 8 dereferenceable(8) %0) #5 comdat {
  %2 = alloca ptr, align 8
  store ptr %0, ptr %2, align 8, !tbaa !192
  ret void
}

; Function Attrs: mustprogress nounwind uwtable
define internal void @"_ZN9__gnu_cxx5__ops10_Iter_predIZN7rocksdb10EscapeCharEcE3$_0EC2ES3_"(ptr noundef nonnull align 1 dereferenceable(1) %0, i8 %1) unnamed_addr #2 align 2 {
  %3 = alloca %class.anon.3, align 1
  %4 = alloca ptr, align 8
  %5 = getelementptr inbounds nuw %class.anon.3, ptr %3, i32 0, i32 0
  store i8 %1, ptr %5, align 1
  store ptr %0, ptr %4, align 8, !tbaa !198
  %6 = load ptr, ptr %4, align 8
  %7 = getelementptr inbounds nuw %"struct.__gnu_cxx::__ops::_Iter_pred.19", ptr %6, i32 0, i32 0
  call void @llvm.memcpy.p0.p0.i64(ptr align 1 %7, ptr align 1 %3, i64 1, i1 false), !tbaa.struct !60
  ret void
}

; Function Attrs: inlinehint mustprogress uwtable
define internal noundef ptr @"_ZSt9__find_ifIPKSt4pairIccEN9__gnu_cxx5__ops10_Iter_predIZN7rocksdb10EscapeCharEcE3$_0EEET_SA_SA_T0_"(ptr noundef %0, ptr noundef %1, i8 %2) #9 {
  %4 = alloca %"struct.__gnu_cxx::__ops::_Iter_pred.19", align 1
  %5 = alloca ptr, align 8
  %6 = alloca ptr, align 8
  %7 = alloca %"struct.__gnu_cxx::__ops::_Iter_pred.19", align 1
  %8 = getelementptr inbounds nuw %"struct.__gnu_cxx::__ops::_Iter_pred.19", ptr %4, i32 0, i32 0
  %9 = getelementptr inbounds nuw %class.anon.3, ptr %8, i32 0, i32 0
  store i8 %2, ptr %9, align 1
  store ptr %0, ptr %5, align 8, !tbaa !56
  store ptr %1, ptr %6, align 8, !tbaa !56
  %10 = load ptr, ptr %5, align 8, !tbaa !56
  %11 = load ptr, ptr %6, align 8, !tbaa !56
  call void @llvm.memcpy.p0.p0.i64(ptr align 1 %7, ptr align 1 %4, i64 1, i1 false), !tbaa.struct !60
  call void @_ZSt19__iterator_categoryIPKSt4pairIccEENSt15iterator_traitsIT_E17iterator_categoryERKS5_(ptr noundef nonnull align 8 dereferenceable(8) %5)
  %12 = getelementptr inbounds nuw %"struct.__gnu_cxx::__ops::_Iter_pred.19", ptr %7, i32 0, i32 0
  %13 = getelementptr inbounds nuw %class.anon.3, ptr %12, i32 0, i32 0
  %14 = load i8, ptr %13, align 1
  %15 = call noundef ptr @"_ZSt9__find_ifIPKSt4pairIccEN9__gnu_cxx5__ops10_Iter_predIZN7rocksdb10EscapeCharEcE3$_0EEET_SA_SA_T0_St26random_access_iterator_tag"(ptr noundef %10, ptr noundef %11, i8 %14)
  ret ptr %15
}

; Function Attrs: inlinehint mustprogress uwtable
define internal i8 @"_ZN9__gnu_cxx5__ops11__pred_iterIZN7rocksdb10EscapeCharEcE3$_0EENS0_10_Iter_predIT_EES5_"(i8 %0) #9 {
  %2 = alloca %"struct.__gnu_cxx::__ops::_Iter_pred.19", align 1
  %3 = alloca %class.anon.3, align 1
  %4 = alloca %class.anon.3, align 1
  %5 = getelementptr inbounds nuw %class.anon.3, ptr %3, i32 0, i32 0
  store i8 %0, ptr %5, align 1
  call void @llvm.memcpy.p0.p0.i64(ptr align 1 %4, ptr align 1 %3, i64 1, i1 false), !tbaa.struct !60
  %6 = getelementptr inbounds nuw %class.anon.3, ptr %4, i32 0, i32 0
  %7 = load i8, ptr %6, align 1
  call void @"_ZN9__gnu_cxx5__ops10_Iter_predIZN7rocksdb10EscapeCharEcE3$_0EC2ES3_"(ptr noundef nonnull align 1 dereferenceable(1) %2, i8 %7)
  %8 = getelementptr inbounds nuw %"struct.__gnu_cxx::__ops::_Iter_pred.19", ptr %2, i32 0, i32 0
  %9 = getelementptr inbounds nuw %class.anon.3, ptr %8, i32 0, i32 0
  %10 = load i8, ptr %9, align 1
  ret i8 %10
}

; Function Attrs: inlinehint mustprogress uwtable
define internal noundef ptr @"_ZSt7find_ifIPKSt4pairIccEZN7rocksdb10EscapeCharEcE3$_0ET_S6_S6_T0_"(ptr noundef %0, ptr noundef %1, i8 %2) #9 {
  %4 = alloca %class.anon.3, align 1
  %5 = alloca ptr, align 8
  %6 = alloca ptr, align 8
  %7 = alloca %"struct.__gnu_cxx::__ops::_Iter_pred.19", align 1
  %8 = alloca %class.anon.3, align 1
  %9 = getelementptr inbounds nuw %class.anon.3, ptr %4, i32 0, i32 0
  store i8 %2, ptr %9, align 1
  store ptr %0, ptr %5, align 8, !tbaa !56
  store ptr %1, ptr %6, align 8, !tbaa !56
  %10 = load ptr, ptr %5, align 8, !tbaa !56
  %11 = load ptr, ptr %6, align 8, !tbaa !56
  call void @llvm.memcpy.p0.p0.i64(ptr align 1 %8, ptr align 1 %4, i64 1, i1 false), !tbaa.struct !60
  %12 = getelementptr inbounds nuw %class.anon.3, ptr %8, i32 0, i32 0
  %13 = load i8, ptr %12, align 1
  %14 = call i8 @"_ZN9__gnu_cxx5__ops11__pred_iterIZN7rocksdb10EscapeCharEcE3$_0EENS0_10_Iter_predIT_EES5_"(i8 %13)
  %15 = getelementptr inbounds nuw %"struct.__gnu_cxx::__ops::_Iter_pred.19", ptr %7, i32 0, i32 0
  %16 = getelementptr inbounds nuw %class.anon.3, ptr %15, i32 0, i32 0
  store i8 %14, ptr %16, align 1
  %17 = getelementptr inbounds nuw %"struct.__gnu_cxx::__ops::_Iter_pred.19", ptr %7, i32 0, i32 0
  %18 = getelementptr inbounds nuw %class.anon.3, ptr %17, i32 0, i32 0
  %19 = load i8, ptr %18, align 1
  %20 = call noundef ptr @"_ZSt9__find_ifIPKSt4pairIccEN9__gnu_cxx5__ops10_Iter_predIZN7rocksdb10EscapeCharEcE3$_0EEET_SA_SA_T0_"(ptr noundef %10, ptr noundef %11, i8 %19)
  ret ptr %20
}

; Function Attrs: inlinehint mustprogress nounwind uwtable
define linkonce_odr noundef ptr @_ZSt3endIKSt4pairIccELm2EEPT_RAT0__S3_(ptr noundef nonnull align 1 dereferenceable(4) %0) #5 comdat {
  %2 = alloca ptr, align 8
  store ptr %0, ptr %2, align 8, !tbaa !56
  %3 = load ptr, ptr %2, align 8, !tbaa !56
  %4 = getelementptr inbounds [2 x %"struct.std::pair"], ptr %3, i64 0, i64 0
  %5 = getelementptr inbounds nuw %"struct.std::pair", ptr %4, i64 2
  ret ptr %5
}

; Function Attrs: inlinehint mustprogress nounwind uwtable
define linkonce_odr noundef ptr @_ZSt5beginIKSt4pairIccELm2EEPT_RAT0__S3_(ptr noundef nonnull align 1 dereferenceable(4) %0) #5 comdat {
  %2 = alloca ptr, align 8
  store ptr %0, ptr %2, align 8, !tbaa !56
  %3 = load ptr, ptr %2, align 8, !tbaa !56
  %4 = getelementptr inbounds [2 x %"struct.std::pair"], ptr %3, i64 0, i64 0
  ret ptr %4
}

; Function Attrs: mustprogress uwtable
define noundef signext i8 @_ZN7rocksdb10EscapeCharEc(i8 noundef signext %0) #3 {
  %2 = alloca i8, align 1
  %3 = alloca i8, align 1
  %4 = alloca ptr, align 8
  %5 = alloca %class.anon.3, align 1
  %6 = alloca i32, align 4
  store i8 %0, ptr %3, align 1, !tbaa !15
  call void @llvm.lifetime.start.p0(i64 8, ptr %4) #4
  %7 = call noundef ptr @_ZSt5beginIKSt4pairIccELm2EEPT_RAT0__S3_(ptr noundef nonnull align 1 dereferenceable(4) @_ZZN7rocksdb10EscapeCharEcE11convert_map) #4
  %8 = call noundef ptr @_ZSt3endIKSt4pairIccELm2EEPT_RAT0__S3_(ptr noundef nonnull align 1 dereferenceable(4) @_ZZN7rocksdb10EscapeCharEcE11convert_map) #4
  %9 = getelementptr inbounds nuw %class.anon.3, ptr %5, i32 0, i32 0
  %10 = load i8, ptr %3, align 1, !tbaa !15
  store i8 %10, ptr %9, align 1, !tbaa !61
  %11 = getelementptr inbounds nuw %class.anon.3, ptr %5, i32 0, i32 0
  %12 = load i8, ptr %11, align 1
  %13 = call noundef ptr @"_ZSt7find_ifIPKSt4pairIccEZN7rocksdb10EscapeCharEcE3$_0ET_S6_S6_T0_"(ptr noundef %7, ptr noundef %8, i8 %12)
  store ptr %13, ptr %4, align 8, !tbaa !56
  %14 = load ptr, ptr %4, align 8, !tbaa !56
  %15 = call noundef ptr @_ZSt3endIKSt4pairIccELm2EEPT_RAT0__S3_(ptr noundef nonnull align 1 dereferenceable(4) @_ZZN7rocksdb10EscapeCharEcE11convert_map) #4
  %16 = icmp eq ptr %14, %15
  br i1 %16, label %17, label %19

17:                                               ; preds = %1
  %18 = load i8, ptr %3, align 1, !tbaa !15
  store i8 %18, ptr %2, align 1
  store i32 1, ptr %6, align 4
  br label %23

19:                                               ; preds = %1
  %20 = load ptr, ptr %4, align 8, !tbaa !56
  %21 = getelementptr inbounds nuw %"struct.std::pair", ptr %20, i32 0, i32 1
  %22 = load i8, ptr %21, align 1, !tbaa !58
  store i8 %22, ptr %2, align 1
  store i32 1, ptr %6, align 4
  br label %23

23:                                               ; preds = %19, %17
  call void @llvm.lifetime.end.p0(i64 8, ptr %4) #4
  %24 = load i8, ptr %2, align 1
  ret i8 %24
}