; Function Attrs: mustprogress nofree norecurse nosync nounwind willreturn memory(none) uwtable
define noundef signext i8 @_ZN7rocksdb10EscapeCharEc(i8 noundef signext %0) local_unnamed_addr #10 {
  switch i8 %0, label %"_ZSt7find_ifIPKSt4pairIccEZN7rocksdb10EscapeCharEcE3$_0ET_S6_S6_T0_.exit" [
    i8 10, label %2
    i8 13, label %.fold.split
  ]

.fold.split:                                      ; preds = %1
  br label %2

2:                                                ; preds = %1, %.fold.split
  %.028.i.i.i.ph = phi ptr [ @_ZZN7rocksdb10EscapeCharEcE11convert_map, %1 ], [ getelementptr inbounds nuw (i8, ptr @_ZZN7rocksdb10EscapeCharEcE11convert_map, i64 2), %.fold.split ]
  %3 = getelementptr inbounds nuw i8, ptr %.028.i.i.i.ph, i64 1
  %4 = load i8, ptr %3, align 1, !tbaa !43
  br label %"_ZSt7find_ifIPKSt4pairIccEZN7rocksdb10EscapeCharEcE3$_0ET_S6_S6_T0_.exit"

"_ZSt7find_ifIPKSt4pairIccEZN7rocksdb10EscapeCharEcE3$_0ET_S6_S6_T0_.exit": ; preds = %1, %2
  %.0 = phi i8 [ %4, %2 ], [ %0, %1 ]
  ret i8 %.0
}